target datalayout = "e-m:e-p270:32:32-p271:32:32-p272:64:64-i64:64-i128:128-f80:128-n8:16:32:64-S128"
target triple = "x86_64-unknown-linux-gnu"

%"class.cvc5::context::ContextNotifyObj" = type { ptr, ptr, ptr }

@_ZTVN4cvc57context16ContextNotifyObjE = hidden unnamed_addr constant { [5 x ptr] } { [5 x ptr] [ptr null, ptr @_ZTIN4cvc57context16ContextNotifyObjE, ptr @__cxa_pure_virtual, ptr @_ZN4cvc57context16ContextNotifyObjD1Ev, ptr @_ZN4cvc57context16ContextNotifyObjD0Ev] }, align 8

; Function Attrs: mustprogress nounwind uwtable
define hidden void @_ZN4cvc57context16ContextNotifyObjD2Ev(ptr noundef nonnull align 8 dereferenceable(24) %this) unnamed_addr #5 align 2 {
entry:
  %this.addr = alloca ptr, align 8
  store ptr %this, ptr %this.addr, align 8
  %this1 = load ptr, ptr %this.addr, align 8
  store ptr getelementptr inbounds ({ [5 x ptr] }, ptr @_ZTVN4cvc57context16ContextNotifyObjE, i32 0, i32 0, i32 2), ptr %this1, align 8
  %d_pCNOnext = getelementptr inbounds %"class.cvc5::context::ContextNotifyObj", ptr %this1, i32 0, i32 1
  %0 = load ptr, ptr %d_pCNOnext, align 8
  %cmp = icmp ne ptr %0, null
  br i1 %cmp, label %if.then, label %if.end

if.then:                                          ; preds = %entry
  %d_ppCNOprev = getelementptr inbounds %"class.cvc5::context::ContextNotifyObj", ptr %this1, i32 0, i32 2
  %1 = load ptr, ptr %d_ppCNOprev, align 8
  %d_pCNOnext2 = getelementptr inbounds %"class.cvc5::context::ContextNotifyObj", ptr %this1, i32 0, i32 1
  %2 = load ptr, ptr %d_pCNOnext2, align 8
  %d_ppCNOprev3 = getelementptr inbounds %"class.cvc5::context::ContextNotifyObj", ptr %2, i32 0, i32 2
  store ptr %1, ptr %d_ppCNOprev3, align 8
  br label %if.end

if.end:                                           ; preds = %if.then, %entry
  %d_ppCNOprev4 = getelementptr inbounds %"class.cvc5::context::ContextNotifyObj", ptr %this1, i32 0, i32 2
  %3 = load ptr, ptr %d_ppCNOprev4, align 8
  %cmp5 = icmp ne ptr %3, null
  br i1 %cmp5, label %if.then6, label %if.end9

if.then6:                                         ; preds = %if.end
  %d_pCNOnext7 = getelementptr inbounds %"class.cvc5::context::ContextNotifyObj", ptr %this1, i32 0, i32 1
  %4 = load ptr, ptr %d_pCNOnext7, align 8
  %d_ppCNOprev8 = getelementptr inbounds %"class.cvc5::context::ContextNotifyObj", ptr %this1, i32 0, i32 2
  %5 = load ptr, ptr %d_ppCNOprev8, align 8
  store ptr %4, ptr %5, align 8
  br label %if.end9

if.end9:                                          ; preds = %if.then6, %if.end
  ret void
}