; Function Attrs: mustprogress nofree norecurse nosync nounwind willreturn memory(write, argmem: readwrite, inaccessiblemem: none) uwtable
define hidden void @_ZN4cvc57context16ContextNotifyObjD2Ev(ptr nocapture noundef nonnull align 8 dereferenceable(24) %this) unnamed_addr #9 align 2 {
entry:
  store ptr getelementptr inbounds ({ [5 x ptr] }, ptr @_ZTVN4cvc57context16ContextNotifyObjE, i64 0, i32 0, i64 2), ptr %this, align 8
  %d_pCNOnext = getelementptr inbounds i8, ptr %this, i64 8
  %0 = load ptr, ptr %d_pCNOnext, align 8
  %cmp.not = icmp eq ptr %0, null
  %d_ppCNOprev4.phi.trans.insert = getelementptr inbounds i8, ptr %this, i64 16
  %.pre = load ptr, ptr %d_ppCNOprev4.phi.trans.insert, align 8
  br i1 %cmp.not, label %if.end, label %if.then

if.then:                                          ; preds = %entry
  %d_ppCNOprev3 = getelementptr inbounds i8, ptr %0, i64 16
  store ptr %.pre, ptr %d_ppCNOprev3, align 8
  br label %if.end

if.end:                                           ; preds = %entry, %if.then
  %cmp5.not = icmp eq ptr %.pre, null
  br i1 %cmp5.not, label %if.end9, label %if.then6

if.then6:                                         ; preds = %if.end
  %1 = load ptr, ptr %d_pCNOnext, align 8
  store ptr %1, ptr %.pre, align 8
  br label %if.end9

if.end9:                                          ; preds = %if.then6, %if.end
  ret void
}